target datalayout = "e-m:e-p270:32:32-p271:32:32-p272:64:64-i64:64-i128:128-f80:128-n8:16:32:64-S128"
target triple = "x86_64-pc-linux-gnu"

%struct.b2BodyId = type { i32, i16, i16 }
%struct.b2Vec2 = type { float, float }
%struct.b2BodyArray = type { ptr, i32, i32 }
%struct.b2World = type { %struct.b2ArenaAllocator, %struct.b2BroadPhase, %struct.b2ConstraintGraph, %struct.b2IdPool, %struct.b2BodyArray, %struct.b2IdPool, %struct.b2SolverSetArray, %struct.b2IdPool, %struct.b2JointArray, %struct.b2IdPool, %struct.b2ContactArray, %struct.b2IdPool, %struct.b2IslandArray, %struct.b2IdPool, %struct.b2IdPool, %struct.b2ShapeArray, %struct.b2ChainShapeArray, %struct.b2SensorArray, %struct.b2TaskContextArray, %struct.b2SensorTaskContextArray, %struct.b2BodyMoveEventArray, %struct.b2SensorBeginTouchEventArray, %struct.b2ContactBeginTouchEventArray, [2 x %struct.b2SensorEndTouchEventArray], [2 x %struct.b2ContactEndTouchEventArray], i32, %struct.b2ContactHitEventArray, %struct.b2BitSet, %struct.b2BitSet, %struct.b2BitSet, i64, i32, %struct.b2Vec2, float, float, float, float, float, float, float, float, ptr, ptr, i16, %struct.b2Profile, ptr, ptr, ptr, ptr, i32, ptr, ptr, ptr, ptr, ptr, float, i32, i32, i16, i8, i8, i8, i8, i8, i8 }
%struct.b2ArenaAllocator = type { ptr, i32, i32, i32, i32, %struct.b2ArenaEntryArray }
%struct.b2ArenaEntryArray = type { ptr, i32, i32 }
%struct.b2BroadPhase = type { [3 x %struct.b2DynamicTree], i32, %struct.b2HashSet, %struct.b2IntArray, ptr, ptr, i32, %struct.b2AtomicInt, %struct.b2HashSet }
%struct.b2DynamicTree = type { ptr, i32, i32, i32, i32, i32, ptr, ptr, ptr, ptr, i32 }
%struct.b2IntArray = type { ptr, i32, i32 }
%struct.b2AtomicInt = type { i32 }
%struct.b2HashSet = type { ptr, i32, i32 }
%struct.b2ConstraintGraph = type { [12 x %struct.b2GraphColor] }
%struct.b2GraphColor = type { %struct.b2BitSet, %struct.b2ContactSimArray, %struct.b2JointSimArray, %union.anon }
%struct.b2ContactSimArray = type { ptr, i32, i32 }
%struct.b2JointSimArray = type { ptr, i32, i32 }
%union.anon = type { ptr }
%struct.b2SolverSetArray = type { ptr, i32, i32 }
%struct.b2JointArray = type { ptr, i32, i32 }
%struct.b2ContactArray = type { ptr, i32, i32 }
%struct.b2IslandArray = type { ptr, i32, i32 }
%struct.b2IdPool = type { %struct.b2IntArray, i32 }
%struct.b2ShapeArray = type { ptr, i32, i32 }
%struct.b2ChainShapeArray = type { ptr, i32, i32 }
%struct.b2SensorArray = type { ptr, i32, i32 }
%struct.b2TaskContextArray = type { ptr, i32, i32 }
%struct.b2SensorTaskContextArray = type { ptr, i32, i32 }
%struct.b2BodyMoveEventArray = type { ptr, i32, i32 }
%struct.b2SensorBeginTouchEventArray = type { ptr, i32, i32 }
%struct.b2ContactBeginTouchEventArray = type { ptr, i32, i32 }
%struct.b2SensorEndTouchEventArray = type { ptr, i32, i32 }
%struct.b2ContactEndTouchEventArray = type { ptr, i32, i32 }
%struct.b2ContactHitEventArray = type { ptr, i32, i32 }
%struct.b2BitSet = type { ptr, i32, i32 }
%struct.b2Profile = type { float, float, float, float, float, float, float, float, float, float, float, float, float, float, float, float, float, float, float, float, float, float }
%struct.b2Body = type { [32 x i8], ptr, i32, i32, i32, i32, i32, i32, i32, i32, i32, i32, i32, i32, float, float, float, float, i32, i32, i32, i16, i8, i8, i8, i8 }
%struct.b2Joint = type { ptr, i32, i32, i32, [2 x %struct.b2JointEdge], i32, i32, i32, i32, float, i32, i16, i8, i8 }
%struct.b2JointEdge = type { i32, i32, i32 }
%struct.b2JointId = type { i32, i16, i16 }

; Function Attrs: inlinehint nounwind uwtable
define internal ptr @b2BodyArray_Get(ptr noundef %0, i32 noundef %1) #3 {
  %3 = alloca ptr, align 8
  %4 = alloca i32, align 4
  store ptr %0, ptr %3, align 8, !tbaa !12
  store i32 %1, ptr %4, align 4, !tbaa !3
  %5 = load ptr, ptr %3, align 8, !tbaa !12
  %6 = getelementptr inbounds nuw %struct.b2BodyArray, ptr %5, i32 0, i32 0
  %7 = load ptr, ptr %6, align 8, !tbaa !7
  %8 = load i32, ptr %4, align 4, !tbaa !3
  %9 = sext i32 %8 to i64
  %10 = getelementptr inbounds %struct.b2Body, ptr %7, i64 %9
  ret ptr %10
}

; Function Attrs: inlinehint nounwind uwtable
define internal ptr @b2JointArray_Get(ptr noundef %0, i32 noundef %1) #3 {
  %3 = alloca ptr, align 8
  %4 = alloca i32, align 4
  store ptr %0, ptr %3, align 8, !tbaa !12
  store i32 %1, ptr %4, align 4, !tbaa !3
  %5 = load ptr, ptr %3, align 8, !tbaa !12
  %6 = getelementptr inbounds nuw %struct.b2JointArray, ptr %5, i32 0, i32 0
  %7 = load ptr, ptr %6, align 8, !tbaa !205
  %8 = load i32, ptr %4, align 4, !tbaa !3
  %9 = sext i32 %8 to i64
  %10 = getelementptr inbounds %struct.b2Joint, ptr %7, i64 %9
  ret ptr %10
}

; Function Attrs: nounwind uwtable
define hidden ptr @b2GetBodyFullId(ptr noundef %0, i64 %1) #0 {
  %3 = alloca %struct.b2BodyId, align 4
  %4 = alloca ptr, align 8
  store i64 %1, ptr %3, align 4
  store ptr %0, ptr %4, align 8, !tbaa !24
  %5 = load ptr, ptr %4, align 8, !tbaa !24
  %6 = getelementptr inbounds nuw %struct.b2World, ptr %5, i32 0, i32 4
  %7 = getelementptr inbounds nuw %struct.b2BodyId, ptr %3, i32 0, i32 0
  %8 = load i32, ptr %7, align 4, !tbaa !26
  %9 = sub nsw i32 %8, 1
  %10 = call ptr @b2BodyArray_Get(ptr noundef %6, i32 noundef %9)
  ret ptr %10
}

; Function Attrs: nounwind uwtable
define i32 @b2Body_GetJoints(i64 %0, ptr noundef %1, i32 noundef %2) #0 {
  %4 = alloca %struct.b2BodyId, align 4
  %5 = alloca ptr, align 8
  %6 = alloca i32, align 4
  %7 = alloca ptr, align 8
  %8 = alloca ptr, align 8
  %9 = alloca i32, align 4
  %10 = alloca i32, align 4
  %11 = alloca i32, align 4
  %12 = alloca i32, align 4
  %13 = alloca ptr, align 8
  %14 = alloca %struct.b2JointId, align 4
  store i64 %0, ptr %4, align 4
  store ptr %1, ptr %5, align 8, !tbaa !283
  store i32 %2, ptr %6, align 4, !tbaa !3
  call void @llvm.lifetime.start.p0(i64 8, ptr %7) #8
  %15 = getelementptr inbounds nuw %struct.b2BodyId, ptr %4, i32 0, i32 1
  %16 = load i16, ptr %15, align 4, !tbaa !87
  %17 = zext i16 %16 to i32
  %18 = call ptr @b2GetWorld(i32 noundef %17)
  store ptr %18, ptr %7, align 8, !tbaa !24
  call void @llvm.lifetime.start.p0(i64 8, ptr %8) #8
  %19 = load ptr, ptr %7, align 8, !tbaa !24
  %20 = load i64, ptr %4, align 4
  %21 = call ptr @b2GetBodyFullId(ptr noundef %19, i64 %20)
  store ptr %21, ptr %8, align 8, !tbaa !29
  call void @llvm.lifetime.start.p0(i64 4, ptr %9) #8
  %22 = load ptr, ptr %8, align 8, !tbaa !29
  %23 = getelementptr inbounds nuw %struct.b2Body, ptr %22, i32 0, i32 9
  %24 = load i32, ptr %23, align 4, !tbaa !155
  store i32 %24, ptr %9, align 4, !tbaa !3
  call void @llvm.lifetime.start.p0(i64 4, ptr %10) #8
  store i32 0, ptr %10, align 4, !tbaa !3
  br label %25

25:                                               ; preds = %34, %3
  %26 = load i32, ptr %9, align 4, !tbaa !3
  %27 = icmp ne i32 %26, -1
  br i1 %27, label %28, label %32

28:                                               ; preds = %25
  %29 = load i32, ptr %10, align 4, !tbaa !3
  %30 = load i32, ptr %6, align 4, !tbaa !3
  %31 = icmp slt i32 %29, %30
  br label %32

32:                                               ; preds = %28, %25
  %33 = phi i1 [ false, %25 ], [ %31, %28 ]
  br i1 %33, label %34, label %66

34:                                               ; preds = %32
  call void @llvm.lifetime.start.p0(i64 4, ptr %11) #8
  %35 = load i32, ptr %9, align 4, !tbaa !3
  %36 = ashr i32 %35, 1
  store i32 %36, ptr %11, align 4, !tbaa !3
  call void @llvm.lifetime.start.p0(i64 4, ptr %12) #8
  %37 = load i32, ptr %9, align 4, !tbaa !3
  %38 = and i32 %37, 1
  store i32 %38, ptr %12, align 4, !tbaa !3
  call void @llvm.lifetime.start.p0(i64 8, ptr %13) #8
  %39 = load ptr, ptr %7, align 8, !tbaa !24
  %40 = getelementptr inbounds nuw %struct.b2World, ptr %39, i32 0, i32 8
  %41 = load i32, ptr %11, align 4, !tbaa !3
  %42 = call ptr @b2JointArray_Get(ptr noundef %40, i32 noundef %41)
  store ptr %42, ptr %13, align 8, !tbaa !186
  call void @llvm.lifetime.start.p0(i64 8, ptr %14) #8
  %43 = getelementptr inbounds nuw %struct.b2JointId, ptr %14, i32 0, i32 0
  %44 = load i32, ptr %11, align 4, !tbaa !3
  %45 = add nsw i32 %44, 1
  store i32 %45, ptr %43, align 4, !tbaa !285
  %46 = getelementptr inbounds nuw %struct.b2JointId, ptr %14, i32 0, i32 1
  %47 = getelementptr inbounds nuw %struct.b2BodyId, ptr %4, i32 0, i32 1
  %48 = load i16, ptr %47, align 4, !tbaa !87
  store i16 %48, ptr %46, align 4, !tbaa !287
  %49 = getelementptr inbounds nuw %struct.b2JointId, ptr %14, i32 0, i32 2
  %50 = load ptr, ptr %13, align 8, !tbaa !186
  %51 = getelementptr inbounds nuw %struct.b2Joint, ptr %50, i32 0, i32 11
  %52 = load i16, ptr %51, align 4, !tbaa !288
  store i16 %52, ptr %49, align 2, !tbaa !289
  %53 = load ptr, ptr %5, align 8, !tbaa !283
  %54 = load i32, ptr %10, align 4, !tbaa !3
  %55 = sext i32 %54 to i64
  %56 = getelementptr inbounds %struct.b2JointId, ptr %53, i64 %55
  call void @llvm.memcpy.p0.p0.i64(ptr align 4 %56, ptr align 4 %14, i64 8, i1 false), !tbaa.struct !95
  %57 = load i32, ptr %10, align 4, !tbaa !3
  %58 = add nsw i32 %57, 1
  store i32 %58, ptr %10, align 4, !tbaa !3
  %59 = load ptr, ptr %13, align 8, !tbaa !186
  %60 = getelementptr inbounds nuw %struct.b2Joint, ptr %59, i32 0, i32 4
  %61 = load i32, ptr %12, align 4, !tbaa !3
  %62 = sext i32 %61 to i64
  %63 = getelementptr inbounds [2 x %struct.b2JointEdge], ptr %60, i64 0, i64 %62
  %64 = getelementptr inbounds nuw %struct.b2JointEdge, ptr %63, i32 0, i32 2
  %65 = load i32, ptr %64, align 4, !tbaa !187
  store i32 %65, ptr %9, align 4, !tbaa !3
  call void @llvm.lifetime.end.p0(i64 8, ptr %14) #8
  call void @llvm.lifetime.end.p0(i64 8, ptr %13) #8
  call void @llvm.lifetime.end.p0(i64 4, ptr %12) #8
  call void @llvm.lifetime.end.p0(i64 4, ptr %11) #8
  br label %25, !llvm.loop !290

66:                                               ; preds = %32
  %67 = load i32, ptr %10, align 4, !tbaa !3
  call void @llvm.lifetime.end.p0(i64 4, ptr %10) #8
  call void @llvm.lifetime.end.p0(i64 4, ptr %9) #8
  call void @llvm.lifetime.end.p0(i64 8, ptr %8) #8
  call void @llvm.lifetime.end.p0(i64 8, ptr %7) #8
  ret i32 %67
}